; Function Attrs: null_pointer_is_valid sspstrong uwtable
define internal zeroext i1 @libpcap_dump_pcap_nsec(ptr noundef %0, ptr noundef %1, ptr noundef %2, ptr noundef %3, ptr readnone captures(none) %4) #0 {
  %6 = alloca %struct.pcaprec_hdr, align 4
  call void @llvm.lifetime.start.p0(i64 16, ptr nonnull %6) #7
  %7 = getelementptr inbounds nuw i8, ptr %1, i64 16
  %8 = load i64, ptr %7, align 8
  %or.cond = icmp ugt i64 %8, 2147483647
  br i1 %or.cond, label %9, label %10

9:                                                ; preds = %5
  store i32 -27, ptr %3, align 4
  br label %16

10:                                               ; preds = %5
  %11 = trunc nuw nsw i64 %8 to i32
  store i32 %11, ptr %6, align 4
  %12 = getelementptr inbounds nuw i8, ptr %1, i64 24
  %13 = load i32, ptr %12, align 8
  %14 = getelementptr inbounds nuw i8, ptr %6, i64 4
  store i32 %13, ptr %14, align 4
  %15 = call fastcc zeroext i1 @libpcap_dump_write_packet(ptr noundef %0, ptr noundef %1, ptr noundef nonnull %6, i64 noundef 16, ptr noundef %2, ptr noundef %3)
  br label %16

16:                                               ; preds = %10, %9
  %.0 = phi i1 [ false, %9 ], [ %15, %10 ]
  call void @llvm.lifetime.end.p0(i64 16, ptr nonnull %6) #7
  ret i1 %.0
}